; Function Attrs: mustprogress nofree norecurse nosync nounwind willreturn memory(argmem: read) uwtable
define dso_local { ptr, i8 } @_ZNK4Json5Value3endEv(ptr nocapture noundef nonnull readonly align 8 dereferenceable(40) %0) local_unnamed_addr #7 align 2 {
  %2 = getelementptr inbounds i8, ptr %0, i64 8
  %3 = load i16, ptr %2, align 8
  %4 = and i16 %3, 254
  %switch = icmp ne i16 %4, 6
  %5 = load ptr, ptr %0, align 8
  %.not = icmp eq ptr %5, null
  %6 = getelementptr inbounds i8, ptr %5, i64 8
  %7 = select i1 %switch, i1 true, i1 %.not
  %.sroa.01.0 = select i1 %7, ptr null, ptr %6
  %.sroa.3.0 = zext i1 %7 to i8
  %.fca.0.insert = insertvalue { ptr, i8 } poison, ptr %.sroa.01.0, 0
  %.fca.1.insert = insertvalue { ptr, i8 } %.fca.0.insert, i8 %.sroa.3.0, 1
  ret { ptr, i8 } %.fca.1.insert
}